; Function Attrs: mustprogress uwtable
define void @ucnv_toUnicode_77(ptr noundef %0, ptr noundef %1, ptr noundef %2, ptr noundef %3, ptr noundef %4, ptr noundef %5, i8 noundef signext %6, ptr noundef %7) local_unnamed_addr #0 {
  %9 = alloca ptr, align 8
  %10 = alloca %struct.UConverterToUnicodeArgs, align 8
  store ptr %5, ptr %9, align 8, !tbaa !74
  call void @llvm.lifetime.start.p0(i64 56, ptr nonnull %10) #16
  %11 = icmp eq ptr %7, null
  br i1 %11, label %69, label %12

12:                                               ; preds = %8
  %13 = load i32, ptr %7, align 4, !tbaa !3
  %14 = icmp slt i32 %13, 1
  br i1 %14, label %15, label %69

15:                                               ; preds = %12
  %16 = icmp eq ptr %0, null
  %17 = icmp eq ptr %1, null
  %or.cond = or i1 %16, %17
  %18 = icmp eq ptr %3, null
  %or.cond3 = or i1 %or.cond, %18
  br i1 %or.cond3, label %19, label %20

19:                                               ; preds = %15
  store i32 1, ptr %7, align 4, !tbaa !3
  br label %69

20:                                               ; preds = %15
  %21 = load ptr, ptr %3, align 8, !tbaa !52
  %22 = load ptr, ptr %1, align 8, !tbaa !53
  %23 = ptrtoint ptr %2 to i64
  %24 = add i64 %23, 2147483647
  %25 = icmp ult ptr %2, inttoptr (i64 -2147483647 to ptr)
  %26 = inttoptr i64 %24 to ptr
  %27 = select i1 %25, ptr %26, ptr inttoptr (i64 -1 to ptr)
  %28 = icmp eq ptr %27, %2
  %spec.select.idx = sext i1 %28 to i64
  %spec.select = getelementptr inbounds i8, ptr %2, i64 %spec.select.idx
  %29 = icmp ult ptr %4, %21
  %30 = icmp ult ptr %spec.select, %22
  %or.cond59 = select i1 %29, i1 true, i1 %30
  br i1 %or.cond59, label %44, label %31

31:                                               ; preds = %20
  %32 = ptrtoint ptr %4 to i64
  %33 = ptrtoint ptr %21 to i64
  %34 = sub i64 %32, %33
  %35 = icmp ugt i64 %34, 2147483647
  %36 = icmp ugt ptr %4, %21
  %or.cond60 = and i1 %36, %35
  br i1 %or.cond60, label %44, label %37

37:                                               ; preds = %31
  %38 = ptrtoint ptr %spec.select to i64
  %39 = ptrtoint ptr %22 to i64
  %40 = sub i64 %38, %39
  %41 = icmp ult i64 %40, 2147483647
  %42 = icmp ule ptr %spec.select, %22
  %or.cond61.not65 = select i1 %41, i1 true, i1 %42
  %43 = and i64 %40, 1
  %.not56 = icmp eq i64 %43, 0
  %or.cond62 = and i1 %or.cond61.not65, %.not56
  br i1 %or.cond62, label %45, label %44

44:                                               ; preds = %37, %31, %20
  store i32 1, ptr %7, align 4, !tbaa !3
  br label %69

45:                                               ; preds = %37
  %46 = getelementptr inbounds nuw i8, ptr %0, i64 93
  %47 = load i8, ptr %46, align 1, !tbaa !67
  %48 = icmp sgt i8 %47, 0
  br i1 %48, label %49, label %51

49:                                               ; preds = %45
  %50 = call fastcc noundef signext i8 @_ZL28ucnv_outputOverflowToUnicodeP10UConverterPPDsPKDsPPiP10UErrorCode(ptr noundef %0, ptr noundef %1, ptr noundef %spec.select, ptr noundef nonnull %9, ptr noundef %7)
  %.not57 = icmp eq i8 %50, 0
  br i1 %.not57, label %51, label %69

51:                                               ; preds = %49, %45
  %.not58 = icmp eq i8 %6, 0
  %52 = icmp eq ptr %21, %4
  %or.cond63 = and i1 %.not58, %52
  br i1 %or.cond63, label %53, label %57

53:                                               ; preds = %51
  %54 = getelementptr inbounds nuw i8, ptr %0, i64 282
  %55 = load i8, ptr %54, align 2, !tbaa !69
  %56 = icmp sgt i8 %55, -1
  br i1 %56, label %69, label %57

57:                                               ; preds = %53, %51
  %58 = getelementptr inbounds nuw i8, ptr %10, i64 8
  store ptr %0, ptr %58, align 8, !tbaa !36
  %59 = getelementptr inbounds nuw i8, ptr %10, i64 2
  store i8 %6, ptr %59, align 2, !tbaa !90
  %60 = load ptr, ptr %9, align 8, !tbaa !74
  %61 = getelementptr inbounds nuw i8, ptr %10, i64 48
  store ptr %60, ptr %61, align 8, !tbaa !91
  %62 = getelementptr inbounds nuw i8, ptr %10, i64 16
  store ptr %21, ptr %62, align 8, !tbaa !92
  %63 = getelementptr inbounds nuw i8, ptr %10, i64 24
  store ptr %4, ptr %63, align 8, !tbaa !93
  %64 = load ptr, ptr %1, align 8, !tbaa !53
  %65 = getelementptr inbounds nuw i8, ptr %10, i64 32
  store ptr %64, ptr %65, align 8, !tbaa !94
  %66 = getelementptr inbounds nuw i8, ptr %10, i64 40
  store ptr %spec.select, ptr %66, align 8, !tbaa !95
  store i16 56, ptr %10, align 8, !tbaa !96
  call fastcc void @_ZL22_toUnicodeWithCallbackP23UConverterToUnicodeArgsP10UErrorCode(ptr noundef %10, ptr noundef %7)
  %67 = load ptr, ptr %62, align 8, !tbaa !92
  store ptr %67, ptr %3, align 8, !tbaa !52
  %68 = load ptr, ptr %65, align 8, !tbaa !94
  store ptr %68, ptr %1, align 8, !tbaa !53
  br label %69

69:                                               ; preds = %53, %49, %8, %12, %57, %44, %19
  call void @llvm.lifetime.end.p0(i64 56, ptr nonnull %10) #16
  ret void
}